target datalayout = "e-m:e-p270:32:32-p271:32:32-p272:64:64-i64:64-i128:128-f80:128-n8:16:32:64-S128"
target triple = "x86_64-pc-linux-gnu"

%struct.pointf_s = type { double, double }
%struct.Agobj_s = type { %struct.Agtag_s, ptr }
%struct.Agtag_s = type { i32, i64 }
%struct.Agnodeinfo_t = type { %struct.Agrec_s, ptr, ptr, %struct.pointf_s, double, double, %struct.boxf, double, double, double, double, double, ptr, ptr, ptr, i8, i8, i8, i8, i32, i32, i32, ptr, double, i8, i8, ptr, ptr, i8, i64, i8, i8, i8, ptr, ptr, %struct.elist, %struct.elist, %struct.elist, %struct.elist, %struct.elist, ptr, i32, ptr, i32, i32, double, %struct.elist, %struct.elist, %struct.elist, %struct.elist, ptr, i32, i32, i32, [1 x double] }
%struct.Agrec_s = type { ptr, ptr }
%struct.boxf = type { %struct.pointf_s, %struct.pointf_s }
%struct.elist = type { ptr, i64 }
%struct.shape_desc = type { ptr, ptr, ptr, i8 }
%struct.shape_functions = type { ptr, ptr, ptr, ptr, ptr, ptr }

; Function Attrs: nounwind uwtable
define void @bezier_clip(ptr noundef %0, ptr noundef %1, ptr noundef %2, i1 noundef zeroext %3) #0 {
  %5 = alloca ptr, align 8
  %6 = alloca ptr, align 8
  %7 = alloca ptr, align 8
  %8 = alloca i8, align 1
  %9 = alloca [4 x %struct.pointf_s], align 16
  %10 = alloca [4 x %struct.pointf_s], align 16
  %11 = alloca %struct.pointf_s, align 8
  %12 = alloca %struct.pointf_s, align 8
  %13 = alloca ptr, align 8
  %14 = alloca ptr, align 8
  %15 = alloca double, align 8
  %16 = alloca double, align 8
  %17 = alloca double, align 8
  %18 = alloca ptr, align 8
  %19 = alloca ptr, align 8
  %20 = alloca i8, align 1
  %21 = alloca i32, align 4
  %22 = alloca %struct.pointf_s, align 8
  store ptr %0, ptr %5, align 8, !tbaa !3
  store ptr %1, ptr %6, align 8, !tbaa !8
  store ptr %2, ptr %7, align 8, !tbaa !9
  %23 = zext i1 %3 to i8
  store i8 %23, ptr %8, align 1, !tbaa !11
  call void @llvm.lifetime.start.p0(i64 64, ptr %9) #12
  call void @llvm.lifetime.start.p0(i64 64, ptr %10) #12
  call void @llvm.lifetime.start.p0(i64 16, ptr %11) #12
  call void @llvm.lifetime.start.p0(i64 16, ptr %12) #12
  call void @llvm.lifetime.start.p0(i64 8, ptr %13) #12
  call void @llvm.lifetime.start.p0(i64 8, ptr %14) #12
  call void @llvm.lifetime.start.p0(i64 8, ptr %15) #12
  call void @llvm.lifetime.start.p0(i64 8, ptr %16) #12
  call void @llvm.lifetime.start.p0(i64 8, ptr %17) #12
  call void @llvm.lifetime.start.p0(i64 8, ptr %18) #12
  call void @llvm.lifetime.start.p0(i64 8, ptr %19) #12
  call void @llvm.lifetime.start.p0(i64 1, ptr %20) #12
  call void @llvm.lifetime.start.p0(i64 4, ptr %21) #12
  %24 = load i8, ptr %8, align 1, !tbaa !11, !range !13, !noundef !14
  %25 = trunc i8 %24 to i1
  br i1 %25, label %26, label %30

26:                                               ; preds = %4
  store ptr null, ptr %13, align 8, !tbaa !9
  %27 = getelementptr inbounds [4 x %struct.pointf_s], ptr %9, i64 0, i64 0
  store ptr %27, ptr %14, align 8, !tbaa !9
  %28 = load ptr, ptr %7, align 8, !tbaa !9
  %29 = getelementptr inbounds %struct.pointf_s, ptr %28, i64 0
  call void @llvm.memcpy.p0.p0.i64(ptr align 8 %11, ptr align 8 %29, i64 16, i1 false), !tbaa.struct !15
  store ptr %15, ptr %18, align 8, !tbaa !18
  store ptr %16, ptr %19, align 8, !tbaa !18
  br label %34

30:                                               ; preds = %4
  %31 = getelementptr inbounds [4 x %struct.pointf_s], ptr %9, i64 0, i64 0
  store ptr %31, ptr %13, align 8, !tbaa !9
  store ptr null, ptr %14, align 8, !tbaa !9
  %32 = load ptr, ptr %7, align 8, !tbaa !9
  %33 = getelementptr inbounds %struct.pointf_s, ptr %32, i64 3
  call void @llvm.memcpy.p0.p0.i64(ptr align 8 %11, ptr align 8 %33, i64 16, i1 false), !tbaa.struct !15
  store ptr %16, ptr %18, align 8, !tbaa !18
  store ptr %15, ptr %19, align 8, !tbaa !18
  br label %34

34:                                               ; preds = %30, %26
  store i8 0, ptr %20, align 1, !tbaa !11
  store double 0.000000e+00, ptr %15, align 8, !tbaa !16
  store double 1.000000e+00, ptr %16, align 8, !tbaa !16
  br label %35

35:                                               ; preds = %93, %34
  call void @llvm.memcpy.p0.p0.i64(ptr align 8 %12, ptr align 8 %11, i64 16, i1 false), !tbaa.struct !15
  %36 = load double, ptr %16, align 8, !tbaa !16
  %37 = load double, ptr %15, align 8, !tbaa !16
  %38 = fadd double %36, %37
  %39 = fdiv double %38, 2.000000e+00
  store double %39, ptr %17, align 8, !tbaa !16
  call void @llvm.lifetime.start.p0(i64 16, ptr %22) #12
  %40 = load ptr, ptr %7, align 8, !tbaa !9
  %41 = load double, ptr %17, align 8, !tbaa !16
  %42 = load ptr, ptr %13, align 8, !tbaa !9
  %43 = load ptr, ptr %14, align 8, !tbaa !9
  %44 = call { double, double } @Bezier(ptr noundef %40, double noundef %41, ptr noundef %42, ptr noundef %43)
  %45 = getelementptr inbounds nuw { double, double }, ptr %22, i32 0, i32 0
  %46 = extractvalue { double, double } %44, 0
  store double %46, ptr %45, align 8
  %47 = getelementptr inbounds nuw { double, double }, ptr %22, i32 0, i32 1
  %48 = extractvalue { double, double } %44, 1
  store double %48, ptr %47, align 8
  call void @llvm.memcpy.p0.p0.i64(ptr align 8 %11, ptr align 8 %22, i64 16, i1 false), !tbaa.struct !15
  call void @llvm.lifetime.end.p0(i64 16, ptr %22) #12
  %49 = load ptr, ptr %6, align 8, !tbaa !8
  %50 = load ptr, ptr %5, align 8, !tbaa !3
  %51 = getelementptr inbounds nuw { double, double }, ptr %11, i32 0, i32 0
  %52 = load double, ptr %51, align 8
  %53 = getelementptr inbounds nuw { double, double }, ptr %11, i32 0, i32 1
  %54 = load double, ptr %53, align 8
  %55 = call zeroext i1 %49(ptr noundef %50, double %52, double %54)
  br i1 %55, label %56, label %73

56:                                               ; preds = %35
  %57 = load double, ptr %17, align 8, !tbaa !16
  %58 = load ptr, ptr %18, align 8, !tbaa !18
  store double %57, ptr %58, align 8, !tbaa !16
  store i32 0, ptr %21, align 4, !tbaa !20
  br label %59

59:                                               ; preds = %69, %56
  %60 = load i32, ptr %21, align 4, !tbaa !20
  %61 = icmp slt i32 %60, 4
  br i1 %61, label %62, label %72

62:                                               ; preds = %59
  %63 = load i32, ptr %21, align 4, !tbaa !20
  %64 = sext i32 %63 to i64
  %65 = getelementptr inbounds [4 x %struct.pointf_s], ptr %10, i64 0, i64 %64
  %66 = load i32, ptr %21, align 4, !tbaa !20
  %67 = sext i32 %66 to i64
  %68 = getelementptr inbounds [4 x %struct.pointf_s], ptr %9, i64 0, i64 %67
  call void @llvm.memcpy.p0.p0.i64(ptr align 16 %65, ptr align 16 %68, i64 16, i1 false), !tbaa.struct !15
  br label %69

69:                                               ; preds = %62
  %70 = load i32, ptr %21, align 4, !tbaa !20
  %71 = add nsw i32 %70, 1
  store i32 %71, ptr %21, align 4, !tbaa !20
  br label %59, !llvm.loop !22

72:                                               ; preds = %59
  store i8 1, ptr %20, align 1, !tbaa !11
  br label %76

73:                                               ; preds = %35
  %74 = load double, ptr %17, align 8, !tbaa !16
  %75 = load ptr, ptr %19, align 8, !tbaa !18
  store double %74, ptr %75, align 8, !tbaa !16
  br label %76

76:                                               ; preds = %73, %72
  br label %77

77:                                               ; preds = %76
  %78 = getelementptr inbounds nuw %struct.pointf_s, ptr %12, i32 0, i32 0
  %79 = load double, ptr %78, align 8, !tbaa !24
  %80 = getelementptr inbounds nuw %struct.pointf_s, ptr %11, i32 0, i32 0
  %81 = load double, ptr %80, align 8, !tbaa !24
  %82 = fsub double %79, %81
  %83 = call double @llvm.fabs.f64(double %82)
  %84 = fcmp ogt double %83, 5.000000e-01
  br i1 %84, label %93, label %85

85:                                               ; preds = %77
  %86 = getelementptr inbounds nuw %struct.pointf_s, ptr %12, i32 0, i32 1
  %87 = load double, ptr %86, align 8, !tbaa !26
  %88 = getelementptr inbounds nuw %struct.pointf_s, ptr %11, i32 0, i32 1
  %89 = load double, ptr %88, align 8, !tbaa !26
  %90 = fsub double %87, %89
  %91 = call double @llvm.fabs.f64(double %90)
  %92 = fcmp ogt double %91, 5.000000e-01
  br label %93

93:                                               ; preds = %85, %77
  %94 = phi i1 [ true, %77 ], [ %92, %85 ]
  br i1 %94, label %35, label %95, !llvm.loop !27

95:                                               ; preds = %93
  %96 = load i8, ptr %20, align 1, !tbaa !11, !range !13, !noundef !14
  %97 = trunc i8 %96 to i1
  br i1 %97, label %98, label %114

98:                                               ; preds = %95
  store i32 0, ptr %21, align 4, !tbaa !20
  br label %99

99:                                               ; preds = %110, %98
  %100 = load i32, ptr %21, align 4, !tbaa !20
  %101 = icmp slt i32 %100, 4
  br i1 %101, label %102, label %113

102:                                              ; preds = %99
  %103 = load ptr, ptr %7, align 8, !tbaa !9
  %104 = load i32, ptr %21, align 4, !tbaa !20
  %105 = sext i32 %104 to i64
  %106 = getelementptr inbounds %struct.pointf_s, ptr %103, i64 %105
  %107 = load i32, ptr %21, align 4, !tbaa !20
  %108 = sext i32 %107 to i64
  %109 = getelementptr inbounds [4 x %struct.pointf_s], ptr %10, i64 0, i64 %108
  call void @llvm.memcpy.p0.p0.i64(ptr align 8 %106, ptr align 16 %109, i64 16, i1 false), !tbaa.struct !15
  br label %110

110:                                              ; preds = %102
  %111 = load i32, ptr %21, align 4, !tbaa !20
  %112 = add nsw i32 %111, 1
  store i32 %112, ptr %21, align 4, !tbaa !20
  br label %99, !llvm.loop !28

113:                                              ; preds = %99
  br label %130

114:                                              ; preds = %95
  store i32 0, ptr %21, align 4, !tbaa !20
  br label %115

115:                                              ; preds = %126, %114
  %116 = load i32, ptr %21, align 4, !tbaa !20
  %117 = icmp slt i32 %116, 4
  br i1 %117, label %118, label %129

118:                                              ; preds = %115
  %119 = load ptr, ptr %7, align 8, !tbaa !9
  %120 = load i32, ptr %21, align 4, !tbaa !20
  %121 = sext i32 %120 to i64
  %122 = getelementptr inbounds %struct.pointf_s, ptr %119, i64 %121
  %123 = load i32, ptr %21, align 4, !tbaa !20
  %124 = sext i32 %123 to i64
  %125 = getelementptr inbounds [4 x %struct.pointf_s], ptr %9, i64 0, i64 %124
  call void @llvm.memcpy.p0.p0.i64(ptr align 8 %122, ptr align 16 %125, i64 16, i1 false), !tbaa.struct !15
  br label %126

126:                                              ; preds = %118
  %127 = load i32, ptr %21, align 4, !tbaa !20
  %128 = add nsw i32 %127, 1
  store i32 %128, ptr %21, align 4, !tbaa !20
  br label %115, !llvm.loop !29

129:                                              ; preds = %115
  br label %130

130:                                              ; preds = %129, %113
  call void @llvm.lifetime.end.p0(i64 4, ptr %21) #12
  call void @llvm.lifetime.end.p0(i64 1, ptr %20) #12
  call void @llvm.lifetime.end.p0(i64 8, ptr %19) #12
  call void @llvm.lifetime.end.p0(i64 8, ptr %18) #12
  call void @llvm.lifetime.end.p0(i64 8, ptr %17) #12
  call void @llvm.lifetime.end.p0(i64 8, ptr %16) #12
  call void @llvm.lifetime.end.p0(i64 8, ptr %15) #12
  call void @llvm.lifetime.end.p0(i64 8, ptr %14) #12
  call void @llvm.lifetime.end.p0(i64 8, ptr %13) #12
  call void @llvm.lifetime.end.p0(i64 16, ptr %12) #12
  call void @llvm.lifetime.end.p0(i64 16, ptr %11) #12
  call void @llvm.lifetime.end.p0(i64 64, ptr %10) #12
  call void @llvm.lifetime.end.p0(i64 64, ptr %9) #12
  ret void
}

; Function Attrs: nounwind uwtable
define internal void @shape_clip0(ptr noundef %0, ptr noundef %1, ptr noundef %2, i1 noundef zeroext %3) #0 {
  %5 = alloca ptr, align 8
  %6 = alloca ptr, align 8
  %7 = alloca ptr, align 8
  %8 = alloca i8, align 1
  %9 = alloca i32, align 4
  %10 = alloca double, align 8
  %11 = alloca [4 x %struct.pointf_s], align 16
  store ptr %0, ptr %5, align 8, !tbaa !3
  store ptr %1, ptr %6, align 8, !tbaa !30
  store ptr %2, ptr %7, align 8, !tbaa !9
  %12 = zext i1 %3 to i8
  store i8 %12, ptr %8, align 1, !tbaa !11
  call void @llvm.lifetime.start.p0(i64 4, ptr %9) #12
  call void @llvm.lifetime.start.p0(i64 8, ptr %10) #12
  call void @llvm.lifetime.start.p0(i64 64, ptr %11) #12
  %13 = load ptr, ptr %6, align 8, !tbaa !30
  %14 = getelementptr inbounds nuw %struct.Agobj_s, ptr %13, i32 0, i32 1
  %15 = load ptr, ptr %14, align 8, !tbaa !32
  %16 = getelementptr inbounds nuw %struct.Agnodeinfo_t, ptr %15, i32 0, i32 9
  %17 = load double, ptr %16, align 8, !tbaa !56
  store double %17, ptr %10, align 8, !tbaa !16
  store i32 0, ptr %9, align 4, !tbaa !20
  br label %18

18:                                               ; preds = %56, %4
  %19 = load i32, ptr %9, align 4, !tbaa !20
  %20 = icmp slt i32 %19, 4
  br i1 %20, label %21, label %59

21:                                               ; preds = %18
  %22 = load ptr, ptr %7, align 8, !tbaa !9
  %23 = load i32, ptr %9, align 4, !tbaa !20
  %24 = sext i32 %23 to i64
  %25 = getelementptr inbounds %struct.pointf_s, ptr %22, i64 %24
  %26 = getelementptr inbounds nuw %struct.pointf_s, ptr %25, i32 0, i32 0
  %27 = load double, ptr %26, align 8, !tbaa !24
  %28 = load ptr, ptr %6, align 8, !tbaa !30
  %29 = getelementptr inbounds nuw %struct.Agobj_s, ptr %28, i32 0, i32 1
  %30 = load ptr, ptr %29, align 8, !tbaa !32
  %31 = getelementptr inbounds nuw %struct.Agnodeinfo_t, ptr %30, i32 0, i32 3
  %32 = getelementptr inbounds nuw %struct.pointf_s, ptr %31, i32 0, i32 0
  %33 = load double, ptr %32, align 8, !tbaa !57
  %34 = fsub double %27, %33
  %35 = load i32, ptr %9, align 4, !tbaa !20
  %36 = sext i32 %35 to i64
  %37 = getelementptr inbounds [4 x %struct.pointf_s], ptr %11, i64 0, i64 %36
  %38 = getelementptr inbounds nuw %struct.pointf_s, ptr %37, i32 0, i32 0
  store double %34, ptr %38, align 16, !tbaa !24
  %39 = load ptr, ptr %7, align 8, !tbaa !9
  %40 = load i32, ptr %9, align 4, !tbaa !20
  %41 = sext i32 %40 to i64
  %42 = getelementptr inbounds %struct.pointf_s, ptr %39, i64 %41
  %43 = getelementptr inbounds nuw %struct.pointf_s, ptr %42, i32 0, i32 1
  %44 = load double, ptr %43, align 8, !tbaa !26
  %45 = load ptr, ptr %6, align 8, !tbaa !30
  %46 = getelementptr inbounds nuw %struct.Agobj_s, ptr %45, i32 0, i32 1
  %47 = load ptr, ptr %46, align 8, !tbaa !32
  %48 = getelementptr inbounds nuw %struct.Agnodeinfo_t, ptr %47, i32 0, i32 3
  %49 = getelementptr inbounds nuw %struct.pointf_s, ptr %48, i32 0, i32 1
  %50 = load double, ptr %49, align 8, !tbaa !58
  %51 = fsub double %44, %50
  %52 = load i32, ptr %9, align 4, !tbaa !20
  %53 = sext i32 %52 to i64
  %54 = getelementptr inbounds [4 x %struct.pointf_s], ptr %11, i64 0, i64 %53
  %55 = getelementptr inbounds nuw %struct.pointf_s, ptr %54, i32 0, i32 1
  store double %51, ptr %55, align 8, !tbaa !26
  br label %56

56:                                               ; preds = %21
  %57 = load i32, ptr %9, align 4, !tbaa !20
  %58 = add nsw i32 %57, 1
  store i32 %58, ptr %9, align 4, !tbaa !20
  br label %18, !llvm.loop !59

59:                                               ; preds = %18
  %60 = load ptr, ptr %5, align 8, !tbaa !3
  %61 = load ptr, ptr %6, align 8, !tbaa !30
  %62 = getelementptr inbounds nuw %struct.Agobj_s, ptr %61, i32 0, i32 1
  %63 = load ptr, ptr %62, align 8, !tbaa !32
  %64 = getelementptr inbounds nuw %struct.Agnodeinfo_t, ptr %63, i32 0, i32 1
  %65 = load ptr, ptr %64, align 8, !tbaa !37
  %66 = getelementptr inbounds nuw %struct.shape_desc, ptr %65, i32 0, i32 1
  %67 = load ptr, ptr %66, align 8, !tbaa !48
  %68 = getelementptr inbounds nuw %struct.shape_functions, ptr %67, i32 0, i32 3
  %69 = load ptr, ptr %68, align 8, !tbaa !52
  %70 = getelementptr inbounds [4 x %struct.pointf_s], ptr %11, i64 0, i64 0
  %71 = load i8, ptr %8, align 1, !tbaa !11, !range !13, !noundef !14
  %72 = trunc i8 %71 to i1
  call void @bezier_clip(ptr noundef %60, ptr noundef %69, ptr noundef %70, i1 noundef zeroext %72)
  store i32 0, ptr %9, align 4, !tbaa !20
  br label %73

73:                                               ; preds = %111, %59
  %74 = load i32, ptr %9, align 4, !tbaa !20
  %75 = icmp slt i32 %74, 4
  br i1 %75, label %76, label %114

76:                                               ; preds = %73
  %77 = load i32, ptr %9, align 4, !tbaa !20
  %78 = sext i32 %77 to i64
  %79 = getelementptr inbounds [4 x %struct.pointf_s], ptr %11, i64 0, i64 %78
  %80 = getelementptr inbounds nuw %struct.pointf_s, ptr %79, i32 0, i32 0
  %81 = load double, ptr %80, align 16, !tbaa !24
  %82 = load ptr, ptr %6, align 8, !tbaa !30
  %83 = getelementptr inbounds nuw %struct.Agobj_s, ptr %82, i32 0, i32 1
  %84 = load ptr, ptr %83, align 8, !tbaa !32
  %85 = getelementptr inbounds nuw %struct.Agnodeinfo_t, ptr %84, i32 0, i32 3
  %86 = getelementptr inbounds nuw %struct.pointf_s, ptr %85, i32 0, i32 0
  %87 = load double, ptr %86, align 8, !tbaa !57
  %88 = fadd double %81, %87
  %89 = load ptr, ptr %7, align 8, !tbaa !9
  %90 = load i32, ptr %9, align 4, !tbaa !20
  %91 = sext i32 %90 to i64
  %92 = getelementptr inbounds %struct.pointf_s, ptr %89, i64 %91
  %93 = getelementptr inbounds nuw %struct.pointf_s, ptr %92, i32 0, i32 0
  store double %88, ptr %93, align 8, !tbaa !24
  %94 = load i32, ptr %9, align 4, !tbaa !20
  %95 = sext i32 %94 to i64
  %96 = getelementptr inbounds [4 x %struct.pointf_s], ptr %11, i64 0, i64 %95
  %97 = getelementptr inbounds nuw %struct.pointf_s, ptr %96, i32 0, i32 1
  %98 = load double, ptr %97, align 8, !tbaa !26
  %99 = load ptr, ptr %6, align 8, !tbaa !30
  %100 = getelementptr inbounds nuw %struct.Agobj_s, ptr %99, i32 0, i32 1
  %101 = load ptr, ptr %100, align 8, !tbaa !32
  %102 = getelementptr inbounds nuw %struct.Agnodeinfo_t, ptr %101, i32 0, i32 3
  %103 = getelementptr inbounds nuw %struct.pointf_s, ptr %102, i32 0, i32 1
  %104 = load double, ptr %103, align 8, !tbaa !58
  %105 = fadd double %98, %104
  %106 = load ptr, ptr %7, align 8, !tbaa !9
  %107 = load i32, ptr %9, align 4, !tbaa !20
  %108 = sext i32 %107 to i64
  %109 = getelementptr inbounds %struct.pointf_s, ptr %106, i64 %108
  %110 = getelementptr inbounds nuw %struct.pointf_s, ptr %109, i32 0, i32 1
  store double %105, ptr %110, align 8, !tbaa !26
  br label %111

111:                                              ; preds = %76
  %112 = load i32, ptr %9, align 4, !tbaa !20
  %113 = add nsw i32 %112, 1
  store i32 %113, ptr %9, align 4, !tbaa !20
  br label %73, !llvm.loop !60

114:                                              ; preds = %73
  %115 = load double, ptr %10, align 8, !tbaa !16
  %116 = load ptr, ptr %6, align 8, !tbaa !30
  %117 = getelementptr inbounds nuw %struct.Agobj_s, ptr %116, i32 0, i32 1
  %118 = load ptr, ptr %117, align 8, !tbaa !32
  %119 = getelementptr inbounds nuw %struct.Agnodeinfo_t, ptr %118, i32 0, i32 9
  store double %115, ptr %119, align 8, !tbaa !56
  call void @llvm.lifetime.end.p0(i64 64, ptr %11) #12
  call void @llvm.lifetime.end.p0(i64 8, ptr %10) #12
  call void @llvm.lifetime.end.p0(i64 4, ptr %9) #12
  ret void
}