; Function Attrs: nounwind uwtable
define internal fastcc void @shape_clip0(ptr noundef nonnull %0, ptr noundef readonly captures(none) %1, ptr noundef captures(none) %2, i1 noundef zeroext %3) unnamed_addr #0 {
  %5 = alloca [4 x %struct.pointf_s], align 16
  %6 = alloca [4 x %struct.pointf_s], align 16
  %7 = alloca double, align 8
  %8 = alloca double, align 8
  %9 = alloca [4 x %struct.pointf_s], align 16
  call void @llvm.lifetime.start.p0(i64 64, ptr nonnull %9) #17
  %10 = getelementptr inbounds nuw i8, ptr %1, i64 16
  %11 = load ptr, ptr %10, align 8, !tbaa !9
  %12 = getelementptr inbounds nuw i8, ptr %11, i64 112
  %13 = load double, ptr %12, align 8, !tbaa !39
  %.sink.i.sroa.gep = getelementptr inbounds nuw i8, ptr %9, i64 56
  %14 = getelementptr inbounds nuw i8, ptr %11, i64 32
  %15 = getelementptr inbounds nuw i8, ptr %11, i64 40
  %.pre = load double, ptr %14, align 8, !tbaa !41
  %.pre33 = load double, ptr %15, align 8, !tbaa !43
  br label %16

16:                                               ; preds = %4, %16
  %indvars.iv = phi i64 [ 0, %4 ], [ %indvars.iv.next, %16 ]
  %17 = getelementptr inbounds nuw %struct.pointf_s, ptr %2, i64 %indvars.iv
  %18 = load double, ptr %17, align 8, !tbaa !40
  %19 = fsub double %18, %.pre
  %20 = getelementptr inbounds nuw [4 x %struct.pointf_s], ptr %9, i64 0, i64 %indvars.iv
  store double %19, ptr %20, align 16, !tbaa !40
  %21 = getelementptr inbounds nuw i8, ptr %17, i64 8
  %22 = load double, ptr %21, align 8, !tbaa !42
  %23 = fsub double %22, %.pre33
  %24 = getelementptr inbounds nuw i8, ptr %20, i64 8
  store double %23, ptr %24, align 8, !tbaa !42
  %indvars.iv.next = add nuw nsw i64 %indvars.iv, 1
  %exitcond.not = icmp eq i64 %indvars.iv.next, 4
  br i1 %exitcond.not, label %25, label %16, !llvm.loop !44

25:                                               ; preds = %16
  %.sink.i.sroa.gep25 = getelementptr inbounds nuw i8, ptr %9, i64 8
  %26 = getelementptr inbounds nuw i8, ptr %11, i64 16
  %27 = load ptr, ptr %26, align 8, !tbaa !16
  %28 = getelementptr inbounds nuw i8, ptr %27, i64 8
  %29 = load ptr, ptr %28, align 8, !tbaa !31
  %30 = getelementptr inbounds nuw i8, ptr %29, i64 24
  %31 = load ptr, ptr %30, align 8, !tbaa !35
  call void @llvm.lifetime.start.p0(i64 64, ptr nonnull %5) #17
  call void @llvm.lifetime.start.p0(i64 64, ptr nonnull %6)
  call void @llvm.lifetime.start.p0(i64 8, ptr nonnull %7)
  call void @llvm.lifetime.start.p0(i64 8, ptr nonnull %8)
  br i1 %3, label %34, label %32

32:                                               ; preds = %25
  %33 = getelementptr inbounds nuw i8, ptr %9, i64 48
  br label %34

34:                                               ; preds = %32, %25
  %.sink.i.sroa.phi = phi ptr [ %.sink.i.sroa.gep, %32 ], [ %.sink.i.sroa.gep25, %25 ]
  %.040.i = phi ptr [ null, %32 ], [ %5, %25 ]
  %.039.i = phi ptr [ %5, %32 ], [ null, %25 ]
  %.038.i = phi ptr [ %8, %32 ], [ %7, %25 ]
  %.037.i = phi ptr [ %7, %32 ], [ %8, %25 ]
  %.sroa.021.0.in.i = phi ptr [ %33, %32 ], [ %9, %25 ]
  %.sroa.8.0.i = load double, ptr %.sink.i.sroa.phi, align 8, !tbaa !3
  %.sroa.021.0.i = load double, ptr %.sroa.021.0.in.i, align 8, !tbaa !3
  store double 0.000000e+00, ptr %7, align 8, !tbaa !3
  store double 1.000000e+00, ptr %8, align 8, !tbaa !3
  br label %.critedge.i

.critedge.i:                                      ; preds = %.critedge.backedge.i, %34
  %.035.i = phi i1 [ false, %34 ], [ %.136.i, %.critedge.backedge.i ]
  %.sroa.021.1.i = phi double [ %.sroa.021.0.i, %34 ], [ %38, %.critedge.backedge.i ]
  %.sroa.8.1.i = phi double [ %.sroa.8.0.i, %34 ], [ %39, %.critedge.backedge.i ]
  %35 = phi double [ 1.000000e+00, %34 ], [ %49, %.critedge.backedge.i ]
  %36 = fmul double %35, 5.000000e-01
  %37 = call { double, double } @Bezier(ptr noundef nonnull %9, double noundef %36, ptr noundef %.039.i, ptr noundef %.040.i) #17
  %38 = extractvalue { double, double } %37, 0
  %39 = extractvalue { double, double } %37, 1
  %40 = call zeroext i1 %31(ptr noundef nonnull %0, double %38, double %39) #17
  br i1 %40, label %.loopexit44.loopexit.i, label %41

.loopexit44.loopexit.i:                           ; preds = %.critedge.i
  store double %36, ptr %.038.i, align 8, !tbaa !3
  call void @llvm.memcpy.p0.p0.i64(ptr noundef nonnull align 16 dereferenceable(64) %6, ptr noundef nonnull align 16 dereferenceable(64) %5, i64 64, i1 false)
  br label %.loopexit44.i

41:                                               ; preds = %.critedge.i
  store double %36, ptr %.037.i, align 8, !tbaa !3
  br label %.loopexit44.i

.loopexit44.i:                                    ; preds = %41, %.loopexit44.loopexit.i
  %.136.i = phi i1 [ %.035.i, %41 ], [ true, %.loopexit44.loopexit.i ]
  %42 = fsub double %.sroa.021.1.i, %38
  %43 = call double @llvm.fabs.f64(double %42)
  %44 = fcmp ogt double %43, 5.000000e-01
  br i1 %44, label %.critedge.backedge.i, label %45

45:                                               ; preds = %.loopexit44.i
  %46 = fsub double %.sroa.8.1.i, %39
  %47 = call double @llvm.fabs.f64(double %46)
  %48 = fcmp ogt double %47, 5.000000e-01
  br i1 %48, label %.critedge.backedge.i, label %bezier_clip.exit

.critedge.backedge.i:                             ; preds = %45, %.loopexit44.i
  %.0..0..0..0..0..0.41.pre.i = load double, ptr %8, align 8, !tbaa !3
  %.0..0..0..0..0..0..pre.i = load double, ptr %7, align 8, !tbaa !3
  %49 = fadd double %.0..0..0..0..0..0.41.pre.i, %.0..0..0..0..0..0..pre.i
  br label %.critedge.i, !llvm.loop !7

bezier_clip.exit:                                 ; preds = %45
  %..i = select i1 %.136.i, ptr %6, ptr %5
  call void @llvm.memcpy.p0.p0.i64(ptr noundef nonnull align 16 dereferenceable(64) %9, ptr noundef nonnull align 16 dereferenceable(64) %..i, i64 64, i1 false)
  call void @llvm.lifetime.end.p0(i64 8, ptr nonnull %8)
  call void @llvm.lifetime.end.p0(i64 8, ptr nonnull %7)
  call void @llvm.lifetime.end.p0(i64 64, ptr nonnull %6)
  call void @llvm.lifetime.end.p0(i64 64, ptr nonnull %5) #17
  %50 = load ptr, ptr %10, align 8, !tbaa !9
  %51 = getelementptr inbounds nuw i8, ptr %50, i64 32
  %52 = getelementptr inbounds nuw i8, ptr %50, i64 40
  br label %53

53:                                               ; preds = %bezier_clip.exit, %53
  %indvars.iv29 = phi i64 [ 0, %bezier_clip.exit ], [ %indvars.iv.next30, %53 ]
  %54 = getelementptr inbounds nuw [4 x %struct.pointf_s], ptr %9, i64 0, i64 %indvars.iv29
  %55 = load double, ptr %54, align 16, !tbaa !40
  %56 = load double, ptr %51, align 8, !tbaa !41
  %57 = fadd double %55, %56
  %58 = getelementptr inbounds nuw %struct.pointf_s, ptr %2, i64 %indvars.iv29
  store double %57, ptr %58, align 8, !tbaa !40
  %59 = getelementptr inbounds nuw i8, ptr %54, i64 8
  %60 = load double, ptr %59, align 8, !tbaa !42
  %61 = load double, ptr %52, align 8, !tbaa !43
  %62 = fadd double %60, %61
  %63 = getelementptr inbounds nuw i8, ptr %58, i64 8
  store double %62, ptr %63, align 8, !tbaa !42
  %indvars.iv.next30 = add nuw nsw i64 %indvars.iv29, 1
  %exitcond32.not = icmp eq i64 %indvars.iv.next30, 4
  br i1 %exitcond32.not, label %64, label %53, !llvm.loop !45

64:                                               ; preds = %53
  %65 = getelementptr inbounds nuw i8, ptr %50, i64 112
  store double %13, ptr %65, align 8, !tbaa !39
  call void @llvm.lifetime.end.p0(i64 64, ptr nonnull %9) #17
  ret void
}